target datalayout = "e-m:e-p270:32:32-p271:32:32-p272:64:64-i64:64-i128:128-f80:128-n8:16:32:64-S128"
target triple = "x86_64-pc-linux-gnu"

%struct.FramebufferHashTableKey = type { [4 x ptr], i32, [4 x ptr], i32, ptr, i32, i32 }

; Function Attrs: nounwind uwtable
define internal zeroext i1 @VULKAN_INTERNAL_FramebufferHashKeyMatch(ptr noundef %0, ptr noundef %1, ptr noundef %2) #0 {
  %4 = alloca i1, align 1
  %5 = alloca ptr, align 8
  %6 = alloca ptr, align 8
  %7 = alloca ptr, align 8
  %8 = alloca ptr, align 8
  %9 = alloca ptr, align 8
  %10 = alloca i32, align 4
  %11 = alloca i32, align 4
  %12 = alloca i32, align 4
  store ptr %0, ptr %5, align 8
  store ptr %1, ptr %6, align 8
  store ptr %2, ptr %7, align 8
  call void @llvm.lifetime.start.p0(i64 8, ptr %8) #9
  %13 = load ptr, ptr %6, align 8
  store ptr %13, ptr %8, align 8
  call void @llvm.lifetime.start.p0(i64 8, ptr %9) #9
  %14 = load ptr, ptr %7, align 8
  store ptr %14, ptr %9, align 8
  %15 = load ptr, ptr %8, align 8
  %16 = getelementptr inbounds nuw %struct.FramebufferHashTableKey, ptr %15, i32 0, i32 1
  %17 = load i32, ptr %16, align 8
  %18 = load ptr, ptr %9, align 8
  %19 = getelementptr inbounds nuw %struct.FramebufferHashTableKey, ptr %18, i32 0, i32 1
  %20 = load i32, ptr %19, align 8
  %21 = icmp ne i32 %17, %20
  br i1 %21, label %22, label %23

22:                                               ; preds = %3
  store i1 false, ptr %4, align 1
  store i32 1, ptr %10, align 4
  br label %118

23:                                               ; preds = %3
  %24 = load ptr, ptr %8, align 8
  %25 = getelementptr inbounds nuw %struct.FramebufferHashTableKey, ptr %24, i32 0, i32 3
  %26 = load i32, ptr %25, align 8
  %27 = load ptr, ptr %9, align 8
  %28 = getelementptr inbounds nuw %struct.FramebufferHashTableKey, ptr %27, i32 0, i32 3
  %29 = load i32, ptr %28, align 8
  %30 = icmp ne i32 %26, %29
  br i1 %30, label %31, label %32

31:                                               ; preds = %23
  store i1 false, ptr %4, align 1
  store i32 1, ptr %10, align 4
  br label %118

32:                                               ; preds = %23
  call void @llvm.lifetime.start.p0(i64 4, ptr %11) #9
  store i32 0, ptr %11, align 4
  br label %33

33:                                               ; preds = %56, %32
  %34 = load i32, ptr %11, align 4
  %35 = load ptr, ptr %8, align 8
  %36 = getelementptr inbounds nuw %struct.FramebufferHashTableKey, ptr %35, i32 0, i32 1
  %37 = load i32, ptr %36, align 8
  %38 = icmp ult i32 %34, %37
  br i1 %38, label %40, label %39

39:                                               ; preds = %33
  store i32 2, ptr %10, align 4
  br label %59

40:                                               ; preds = %33
  %41 = load ptr, ptr %8, align 8
  %42 = getelementptr inbounds nuw %struct.FramebufferHashTableKey, ptr %41, i32 0, i32 0
  %43 = load i32, ptr %11, align 4
  %44 = zext i32 %43 to i64
  %45 = getelementptr inbounds nuw [4 x ptr], ptr %42, i64 0, i64 %44
  %46 = load ptr, ptr %45, align 8
  %47 = load ptr, ptr %9, align 8
  %48 = getelementptr inbounds nuw %struct.FramebufferHashTableKey, ptr %47, i32 0, i32 0
  %49 = load i32, ptr %11, align 4
  %50 = zext i32 %49 to i64
  %51 = getelementptr inbounds nuw [4 x ptr], ptr %48, i64 0, i64 %50
  %52 = load ptr, ptr %51, align 8
  %53 = icmp ne ptr %46, %52
  br i1 %53, label %54, label %55

54:                                               ; preds = %40
  store i1 false, ptr %4, align 1
  store i32 1, ptr %10, align 4
  br label %59

55:                                               ; preds = %40
  br label %56

56:                                               ; preds = %55
  %57 = load i32, ptr %11, align 4
  %58 = add i32 %57, 1
  store i32 %58, ptr %11, align 4
  br label %33, !llvm.loop !75

59:                                               ; preds = %54, %39
  call void @llvm.lifetime.end.p0(i64 4, ptr %11) #9
  %60 = load i32, ptr %10, align 4
  switch i32 %60, label %118 [
    i32 2, label %61
  ]

61:                                               ; preds = %59
  call void @llvm.lifetime.start.p0(i64 4, ptr %12) #9
  store i32 0, ptr %12, align 4
  br label %62

62:                                               ; preds = %85, %61
  %63 = load i32, ptr %12, align 4
  %64 = load ptr, ptr %8, align 8
  %65 = getelementptr inbounds nuw %struct.FramebufferHashTableKey, ptr %64, i32 0, i32 3
  %66 = load i32, ptr %65, align 8
  %67 = icmp ult i32 %63, %66
  br i1 %67, label %69, label %68

68:                                               ; preds = %62
  store i32 5, ptr %10, align 4
  br label %88

69:                                               ; preds = %62
  %70 = load ptr, ptr %8, align 8
  %71 = getelementptr inbounds nuw %struct.FramebufferHashTableKey, ptr %70, i32 0, i32 2
  %72 = load i32, ptr %12, align 4
  %73 = zext i32 %72 to i64
  %74 = getelementptr inbounds nuw [4 x ptr], ptr %71, i64 0, i64 %73
  %75 = load ptr, ptr %74, align 8
  %76 = load ptr, ptr %9, align 8
  %77 = getelementptr inbounds nuw %struct.FramebufferHashTableKey, ptr %76, i32 0, i32 2
  %78 = load i32, ptr %12, align 4
  %79 = zext i32 %78 to i64
  %80 = getelementptr inbounds nuw [4 x ptr], ptr %77, i64 0, i64 %79
  %81 = load ptr, ptr %80, align 8
  %82 = icmp ne ptr %75, %81
  br i1 %82, label %83, label %84

83:                                               ; preds = %69
  store i1 false, ptr %4, align 1
  store i32 1, ptr %10, align 4
  br label %88

84:                                               ; preds = %69
  br label %85

85:                                               ; preds = %84
  %86 = load i32, ptr %12, align 4
  %87 = add i32 %86, 1
  store i32 %87, ptr %12, align 4
  br label %62, !llvm.loop !76

88:                                               ; preds = %83, %68
  call void @llvm.lifetime.end.p0(i64 4, ptr %12) #9
  %89 = load i32, ptr %10, align 4
  switch i32 %89, label %118 [
    i32 5, label %90
  ]

90:                                               ; preds = %88
  %91 = load ptr, ptr %8, align 8
  %92 = getelementptr inbounds nuw %struct.FramebufferHashTableKey, ptr %91, i32 0, i32 4
  %93 = load ptr, ptr %92, align 8
  %94 = load ptr, ptr %9, align 8
  %95 = getelementptr inbounds nuw %struct.FramebufferHashTableKey, ptr %94, i32 0, i32 4
  %96 = load ptr, ptr %95, align 8
  %97 = icmp ne ptr %93, %96
  br i1 %97, label %98, label %99

98:                                               ; preds = %90
  store i1 false, ptr %4, align 1
  store i32 1, ptr %10, align 4
  br label %118

99:                                               ; preds = %90
  %100 = load ptr, ptr %8, align 8
  %101 = getelementptr inbounds nuw %struct.FramebufferHashTableKey, ptr %100, i32 0, i32 5
  %102 = load i32, ptr %101, align 8
  %103 = load ptr, ptr %9, align 8
  %104 = getelementptr inbounds nuw %struct.FramebufferHashTableKey, ptr %103, i32 0, i32 5
  %105 = load i32, ptr %104, align 8
  %106 = icmp ne i32 %102, %105
  br i1 %106, label %107, label %108

107:                                              ; preds = %99
  store i1 false, ptr %4, align 1
  store i32 1, ptr %10, align 4
  br label %118

108:                                              ; preds = %99
  %109 = load ptr, ptr %8, align 8
  %110 = getelementptr inbounds nuw %struct.FramebufferHashTableKey, ptr %109, i32 0, i32 6
  %111 = load i32, ptr %110, align 4
  %112 = load ptr, ptr %9, align 8
  %113 = getelementptr inbounds nuw %struct.FramebufferHashTableKey, ptr %112, i32 0, i32 6
  %114 = load i32, ptr %113, align 4
  %115 = icmp ne i32 %111, %114
  br i1 %115, label %116, label %117

116:                                              ; preds = %108
  store i1 false, ptr %4, align 1
  store i32 1, ptr %10, align 4
  br label %118

117:                                              ; preds = %108
  store i1 true, ptr %4, align 1
  store i32 1, ptr %10, align 4
  br label %118

118:                                              ; preds = %117, %116, %107, %98, %88, %59, %31, %22
  call void @llvm.lifetime.end.p0(i64 8, ptr %9) #9
  call void @llvm.lifetime.end.p0(i64 8, ptr %8) #9
  %119 = load i1, ptr %4, align 1
  ret i1 %119
}