; Function Attrs: nofree norecurse nosync nounwind memory(argmem: read) uwtable
define internal zeroext i1 @VULKAN_INTERNAL_FramebufferHashKeyMatch(ptr readnone captures(none) %0, ptr noundef readonly captures(none) %1, ptr noundef readonly captures(none) %2) #11 {
  %4 = getelementptr inbounds nuw i8, ptr %1, i64 32
  %5 = load i32, ptr %4, align 8
  %6 = getelementptr inbounds nuw i8, ptr %2, i64 32
  %7 = load i32, ptr %6, align 8
  %.not = icmp eq i32 %5, %7
  br i1 %.not, label %8, label %.loopexit

8:                                                ; preds = %3
  %9 = getelementptr inbounds nuw i8, ptr %1, i64 72
  %10 = load i32, ptr %9, align 8
  %11 = getelementptr inbounds nuw i8, ptr %2, i64 72
  %12 = load i32, ptr %11, align 8
  %.not33 = icmp eq i32 %10, %12
  br i1 %.not33, label %.preheader, label %.loopexit

.preheader:                                       ; preds = %8
  %.not3544.not = icmp eq i32 %5, 0
  br i1 %.not3544.not, label %.critedge.preheader, label %.lr.ph.preheader

.lr.ph.preheader:                                 ; preds = %.preheader
  %wide.trip.count = zext i32 %5 to i64
  br label %.lr.ph

13:                                               ; preds = %.lr.ph
  %indvars.iv.next = add nuw nsw i64 %indvars.iv, 1
  %exitcond.not = icmp eq i64 %indvars.iv.next, %wide.trip.count
  br i1 %exitcond.not, label %.critedge.preheader, label %.lr.ph, !llvm.loop !95

.critedge.preheader:                              ; preds = %13, %.preheader
  %.not3746.not = icmp eq i32 %10, 0
  br i1 %.not3746.not, label %.critedge42, label %.lr.ph48

.lr.ph48:                                         ; preds = %.critedge.preheader
  %14 = getelementptr inbounds nuw i8, ptr %1, i64 40
  %15 = getelementptr inbounds nuw i8, ptr %2, i64 40
  %wide.trip.count54 = zext i32 %10 to i64
  br label %20

.lr.ph:                                           ; preds = %.lr.ph.preheader, %13
  %indvars.iv = phi i64 [ 0, %.lr.ph.preheader ], [ %indvars.iv.next, %13 ]
  %16 = getelementptr inbounds nuw [4 x ptr], ptr %1, i64 0, i64 %indvars.iv
  %17 = load ptr, ptr %16, align 8
  %18 = getelementptr inbounds nuw [4 x ptr], ptr %2, i64 0, i64 %indvars.iv
  %19 = load ptr, ptr %18, align 8
  %.not34 = icmp eq ptr %17, %19
  br i1 %.not34, label %13, label %.loopexit

.critedge:                                        ; preds = %20
  %indvars.iv.next52 = add nuw nsw i64 %indvars.iv51, 1
  %exitcond55.not = icmp eq i64 %indvars.iv.next52, %wide.trip.count54
  br i1 %exitcond55.not, label %.critedge42, label %20, !llvm.loop !96

20:                                               ; preds = %.lr.ph48, %.critedge
  %indvars.iv51 = phi i64 [ 0, %.lr.ph48 ], [ %indvars.iv.next52, %.critedge ]
  %21 = getelementptr inbounds nuw [4 x ptr], ptr %14, i64 0, i64 %indvars.iv51
  %22 = load ptr, ptr %21, align 8
  %23 = getelementptr inbounds nuw [4 x ptr], ptr %15, i64 0, i64 %indvars.iv51
  %24 = load ptr, ptr %23, align 8
  %.not36 = icmp eq ptr %22, %24
  br i1 %.not36, label %.critedge, label %.loopexit

.critedge42:                                      ; preds = %.critedge, %.critedge.preheader
  %25 = getelementptr inbounds nuw i8, ptr %1, i64 80
  %26 = load ptr, ptr %25, align 8
  %27 = getelementptr inbounds nuw i8, ptr %2, i64 80
  %28 = load ptr, ptr %27, align 8
  %.not38 = icmp eq ptr %26, %28
  br i1 %.not38, label %29, label %.loopexit

29:                                               ; preds = %.critedge42
  %30 = getelementptr inbounds nuw i8, ptr %1, i64 88
  %31 = load i32, ptr %30, align 8
  %32 = getelementptr inbounds nuw i8, ptr %2, i64 88
  %33 = load i32, ptr %32, align 8
  %.not39 = icmp eq i32 %31, %33
  br i1 %.not39, label %34, label %.loopexit

34:                                               ; preds = %29
  %35 = getelementptr inbounds nuw i8, ptr %1, i64 92
  %36 = load i32, ptr %35, align 4
  %37 = getelementptr inbounds nuw i8, ptr %2, i64 92
  %38 = load i32, ptr %37, align 4
  %.not40 = icmp eq i32 %36, %38
  br label %.loopexit

.loopexit:                                        ; preds = %.lr.ph, %20, %34, %29, %.critedge42, %8, %3
  %.031 = phi i1 [ false, %3 ], [ false, %8 ], [ false, %.critedge42 ], [ false, %29 ], [ %.not40, %34 ], [ false, %20 ], [ false, %.lr.ph ]
  ret i1 %.031
}